(dp0
V185.28.249.2:36110
p1
L-95L
sV89.229.112.3:39519
p2
L-95L
sV91.90.180.146:45929
p3
L-95L
sV91.222.27.31:35753
p4
L-90L
sV178.217.32.210:52523
p5
L5L
sV188.252.70.231:57191
p6
L10L
sV157.25.53.86:53002
p7
L-55L
sV188.137.87.9:56519
p8
L-15L
sV89.200.231.249:45347
p9
L-40L
sV185.18.140.236:39509
p10
L-25L
sV83.175.166.234:8080
p11
L-60L
sV94.154.62.133:35576
p12
L-95L
sV90.156.65.34:3128
p13
L-25L
sV94.154.61.196:47352
p14
L-80L
sV83.18.178.186:8080
p15
L0L
sV95.50.18.138:47899
p16
L-95L
sV85.193.195.16:37753
p17
L-35L
sV89.200.150.35:39929
p18
L-20L
sV62.87.239.131:31383
p19
L-85L
sV193.19.166.210:35820
p20
L-95L
sV77.46.72.136:52338
p21
L-80L
sV188.137.77.75:46969
p22
L-95L
sV84.38.95.104:44312
p23
L-85L
sV94.240.48.166:44041
p24
L-95L
sV81.219.150.50:8080
p25
L-40L
sV91.240.133.66:8080
p26
L-10L
sV195.210.61.129:38079
p27
L-65L
sV195.230.113.98:8080
p28
L-70L
sV77.252.133.48:25772
p29
L-85L
sV46.45.76.10:8080
p30
L-90L
sV185.230.200.99:8080
p31
L-75L
sV178.217.117.70:44373
p32
L-65L
s.